; Function Attrs: nounwind uwtable
define internal range(i32 0, 2) i32 @test_cmp_calc_protection_pkey_Ed() #0 {
  %1 = tail call fastcc ptr @set_up(ptr noundef nonnull @.str.45)
  %2 = icmp eq ptr %1, null
  br i1 %2, label %30, label %3

3:                                                ; preds = %0
  %4 = load ptr, ptr @prot_Ed_key, align 8, !tbaa !4
  %5 = getelementptr inbounds nuw i8, ptr %1, i64 32
  store ptr %4, ptr %5, align 8, !tbaa !41
  %6 = getelementptr inbounds nuw i8, ptr %1, i64 8
  %7 = load ptr, ptr %6, align 8, !tbaa !36
  %8 = tail call i32 @OSSL_CMP_CTX_set1_pkey(ptr noundef %7, ptr noundef %4) #5
  %9 = icmp ne i32 %8, 0
  %10 = zext i1 %9 to i32
  %11 = tail call i32 @test_true(ptr noundef nonnull @.str.14, i32 noundef 166, ptr noundef nonnull @.str.70, i32 noundef %10) #5
  %.not = icmp eq i32 %11, 0
  br i1 %.not, label %.thread, label %12

12:                                               ; preds = %3
  %13 = load ptr, ptr @genm_prot_Ed_f, align 8, !tbaa !17
  %14 = load ptr, ptr @libctx, align 8, !tbaa !15
  %15 = tail call ptr @load_pkimsg(ptr noundef %13, ptr noundef %14) #5
  %16 = getelementptr inbounds nuw i8, ptr %1, i64 16
  store ptr %15, ptr %16, align 8, !tbaa !19
  %17 = tail call i32 @test_ptr(ptr noundef nonnull @.str.14, i32 noundef 167, ptr noundef nonnull @.str.71, ptr noundef %15) #5
  %.not12 = icmp eq i32 %17, 0
  br i1 %.not12, label %.thread, label %tear_down.exit15

.thread:                                          ; preds = %3, %12
  %18 = load ptr, ptr %6, align 8, !tbaa !36
  tail call void @OSSL_CMP_CTX_free(ptr noundef %18) #5
  %19 = getelementptr inbounds nuw i8, ptr %1, i64 16
  br label %.sink.split

tear_down.exit15:                                 ; preds = %12
  %20 = tail call fastcc i32 @execute_calc_protection_signature_test(ptr noundef %1)
  %21 = load ptr, ptr %6, align 8, !tbaa !36
  tail call void @OSSL_CMP_CTX_free(ptr noundef %21) #5
  br label %.sink.split

.sink.split:                                      ; preds = %tear_down.exit15, %.thread
  %.sink.in = phi ptr [ %19, %.thread ], [ %16, %tear_down.exit15 ]
  %.010.ph = phi i32 [ 0, %.thread ], [ %20, %tear_down.exit15 ]
  %.sink = load ptr, ptr %.sink.in, align 8, !tbaa !19
  tail call void @OSSL_CMP_MSG_free(ptr noundef %.sink) #5
  %22 = getelementptr inbounds nuw i8, ptr %1, i64 24
  %23 = load ptr, ptr %22, align 8, !tbaa !37
  tail call void @OSSL_CMP_PKISI_free(ptr noundef %23) #5
  %24 = getelementptr inbounds nuw i8, ptr %1, i64 40
  %25 = load ptr, ptr %24, align 8, !tbaa !38
  tail call void @CRYPTO_free(ptr noundef %25, ptr noundef nonnull @.str.14, i32 noundef 46) #5
  %26 = getelementptr inbounds nuw i8, ptr %1, i64 64
  %27 = load ptr, ptr %26, align 8, !tbaa !39
  tail call void @OPENSSL_sk_free(ptr noundef %27) #5
  %28 = getelementptr inbounds nuw i8, ptr %1, i64 72
  %29 = load ptr, ptr %28, align 8, !tbaa !40
  tail call void @OPENSSL_sk_free(ptr noundef %29) #5
  tail call void @CRYPTO_free(ptr noundef nonnull %1, ptr noundef nonnull @.str.14, i32 noundef 50) #5
  br label %30

30:                                               ; preds = %.sink.split, %0
  %.010 = phi i32 [ 0, %0 ], [ %.010.ph, %.sink.split ]
  ret i32 %.010
}